target datalayout = "e-m:e-p270:32:32-p271:32:32-p272:64:64-i64:64-i128:128-f80:128-n8:16:32:64-S128"
target triple = "x86_64-pc-linux-gnu"

%struct.UConverterToUnicodeArgs = type { i16, i8, ptr, ptr, ptr, ptr, ptr, ptr }
%struct.UConverter = type { ptr, ptr, ptr, ptr, ptr, ptr, ptr, i32, i8, i8, i8, i8, i8, [7 x i8], i32, i32, i32, i32, i8, i8, i8, i8, i8, i8, i8, i8, [8 x i8], [32 x i8], [2 x i16], [2 x i16], [32 x i16], i32, [19 x i16], [31 x i8], i8, i8, i8, i32 }

; Function Attrs: inlinehint mustprogress nounwind uwtable
define internal noundef signext i8 @_ZL9U_SUCCESS10UErrorCode(i32 noundef %0) #4 {
  %2 = alloca i32, align 4
  store i32 %0, ptr %2, align 4, !tbaa !33
  %3 = load i32, ptr %2, align 4, !tbaa !33
  %4 = icmp sle i32 %3, 0
  %5 = zext i1 %4 to i8
  ret i8 %5
}

; Function Attrs: mustprogress nounwind uwtable
define internal void @_ZL44T_UConverter_toUnicode_UTF32_BE_OFFSET_LOGICP23UConverterToUnicodeArgsP10UErrorCode(ptr noundef %0, ptr noundef %1) #1 {
  %3 = alloca ptr, align 8
  %4 = alloca ptr, align 8
  %5 = alloca ptr, align 8
  %6 = alloca ptr, align 8
  %7 = alloca ptr, align 8
  %8 = alloca ptr, align 8
  %9 = alloca ptr, align 8
  %10 = alloca ptr, align 8
  %11 = alloca i32, align 4
  %12 = alloca i32, align 4
  %13 = alloca i32, align 4
  store ptr %0, ptr %3, align 8, !tbaa !3
  store ptr %1, ptr %4, align 8, !tbaa !3
  call void @llvm.lifetime.start.p0(i64 8, ptr %5) #6
  %14 = load ptr, ptr %3, align 8, !tbaa !3
  %15 = getelementptr inbounds nuw %struct.UConverterToUnicodeArgs, ptr %14, i32 0, i32 3
  %16 = load ptr, ptr %15, align 8, !tbaa !7
  store ptr %16, ptr %5, align 8, !tbaa !14
  call void @llvm.lifetime.start.p0(i64 8, ptr %6) #6
  %17 = load ptr, ptr %3, align 8, !tbaa !3
  %18 = getelementptr inbounds nuw %struct.UConverterToUnicodeArgs, ptr %17, i32 0, i32 5
  %19 = load ptr, ptr %18, align 8, !tbaa !15
  store ptr %19, ptr %6, align 8, !tbaa !16
  call void @llvm.lifetime.start.p0(i64 8, ptr %7) #6
  %20 = load ptr, ptr %3, align 8, !tbaa !3
  %21 = getelementptr inbounds nuw %struct.UConverterToUnicodeArgs, ptr %20, i32 0, i32 7
  %22 = load ptr, ptr %21, align 8, !tbaa !36
  store ptr %22, ptr %7, align 8, !tbaa !37
  call void @llvm.lifetime.start.p0(i64 8, ptr %8) #6
  %23 = load ptr, ptr %3, align 8, !tbaa !3
  %24 = getelementptr inbounds nuw %struct.UConverterToUnicodeArgs, ptr %23, i32 0, i32 4
  %25 = load ptr, ptr %24, align 8, !tbaa !17
  store ptr %25, ptr %8, align 8, !tbaa !14
  call void @llvm.lifetime.start.p0(i64 8, ptr %9) #6
  %26 = load ptr, ptr %3, align 8, !tbaa !3
  %27 = getelementptr inbounds nuw %struct.UConverterToUnicodeArgs, ptr %26, i32 0, i32 6
  %28 = load ptr, ptr %27, align 8, !tbaa !18
  store ptr %28, ptr %9, align 8, !tbaa !16
  call void @llvm.lifetime.start.p0(i64 8, ptr %10) #6
  %29 = load ptr, ptr %3, align 8, !tbaa !3
  %30 = getelementptr inbounds nuw %struct.UConverterToUnicodeArgs, ptr %29, i32 0, i32 2
  %31 = load ptr, ptr %30, align 8, !tbaa !19
  %32 = getelementptr inbounds nuw %struct.UConverter, ptr %31, i32 0, i32 13
  %33 = getelementptr inbounds [7 x i8], ptr %32, i64 0, i64 0
  store ptr %33, ptr %10, align 8, !tbaa !14
  call void @llvm.lifetime.start.p0(i64 4, ptr %11) #6
  call void @llvm.lifetime.start.p0(i64 4, ptr %12) #6
  call void @llvm.lifetime.start.p0(i64 4, ptr %13) #6
  store i32 0, ptr %13, align 4, !tbaa !25
  %34 = load ptr, ptr %3, align 8, !tbaa !3
  %35 = getelementptr inbounds nuw %struct.UConverterToUnicodeArgs, ptr %34, i32 0, i32 2
  %36 = load ptr, ptr %35, align 8, !tbaa !19
  %37 = getelementptr inbounds nuw %struct.UConverter, ptr %36, i32 0, i32 12
  %38 = load i8, ptr %37, align 8, !tbaa !20
  %39 = sext i8 %38 to i32
  %40 = icmp sgt i32 %39, 0
  br i1 %40, label %41, label %66

41:                                               ; preds = %2
  %42 = load ptr, ptr %6, align 8, !tbaa !16
  %43 = load ptr, ptr %9, align 8, !tbaa !16
  %44 = icmp ult ptr %42, %43
  br i1 %44, label %45, label %66

45:                                               ; preds = %41
  %46 = load ptr, ptr %3, align 8, !tbaa !3
  %47 = getelementptr inbounds nuw %struct.UConverterToUnicodeArgs, ptr %46, i32 0, i32 2
  %48 = load ptr, ptr %47, align 8, !tbaa !19
  %49 = getelementptr inbounds nuw %struct.UConverter, ptr %48, i32 0, i32 12
  %50 = load i8, ptr %49, align 8, !tbaa !20
  %51 = sext i8 %50 to i32
  store i32 %51, ptr %12, align 4, !tbaa !25
  %52 = load ptr, ptr %3, align 8, !tbaa !3
  %53 = getelementptr inbounds nuw %struct.UConverterToUnicodeArgs, ptr %52, i32 0, i32 2
  %54 = load ptr, ptr %53, align 8, !tbaa !19
  %55 = getelementptr inbounds nuw %struct.UConverter, ptr %54, i32 0, i32 12
  store i8 0, ptr %55, align 8, !tbaa !20
  %56 = load ptr, ptr %3, align 8, !tbaa !3
  %57 = getelementptr inbounds nuw %struct.UConverterToUnicodeArgs, ptr %56, i32 0, i32 2
  %58 = load ptr, ptr %57, align 8, !tbaa !19
  %59 = getelementptr inbounds nuw %struct.UConverter, ptr %58, i32 0, i32 14
  %60 = load i32, ptr %59, align 8, !tbaa !26
  %61 = sub i32 %60, 1
  store i32 %61, ptr %11, align 4, !tbaa !25
  %62 = load ptr, ptr %3, align 8, !tbaa !3
  %63 = getelementptr inbounds nuw %struct.UConverterToUnicodeArgs, ptr %62, i32 0, i32 2
  %64 = load ptr, ptr %63, align 8, !tbaa !19
  %65 = getelementptr inbounds nuw %struct.UConverter, ptr %64, i32 0, i32 14
  store i32 0, ptr %65, align 8, !tbaa !26
  br label %78

66:                                               ; preds = %41, %2
  br label %67

67:                                               ; preds = %183, %66
  %68 = load ptr, ptr %5, align 8, !tbaa !14
  %69 = load ptr, ptr %8, align 8, !tbaa !14
  %70 = icmp ult ptr %68, %69
  br i1 %70, label %71, label %75

71:                                               ; preds = %67
  %72 = load ptr, ptr %6, align 8, !tbaa !16
  %73 = load ptr, ptr %9, align 8, !tbaa !16
  %74 = icmp ult ptr %72, %73
  br label %75

75:                                               ; preds = %71, %67
  %76 = phi i1 [ false, %67 ], [ %74, %71 ]
  br i1 %76, label %77, label %187

77:                                               ; preds = %75
  store i32 0, ptr %12, align 4, !tbaa !25
  store i32 0, ptr %11, align 4, !tbaa !25
  br label %78

78:                                               ; preds = %77, %45
  br label %79

79:                                               ; preds = %115, %78
  %80 = load i32, ptr %12, align 4, !tbaa !25
  %81 = zext i32 %80 to i64
  %82 = icmp ult i64 %81, 4
  br i1 %82, label %83, label %116

83:                                               ; preds = %79
  %84 = load ptr, ptr %5, align 8, !tbaa !14
  %85 = load ptr, ptr %8, align 8, !tbaa !14
  %86 = icmp ult ptr %84, %85
  br i1 %86, label %87, label %102

87:                                               ; preds = %83
  %88 = load i32, ptr %11, align 4, !tbaa !25
  %89 = shl i32 %88, 8
  %90 = load ptr, ptr %5, align 8, !tbaa !14
  %91 = load i8, ptr %90, align 1, !tbaa !27
  %92 = zext i8 %91 to i32
  %93 = or i32 %89, %92
  store i32 %93, ptr %11, align 4, !tbaa !25
  %94 = load ptr, ptr %5, align 8, !tbaa !14
  %95 = getelementptr inbounds nuw i8, ptr %94, i32 1
  store ptr %95, ptr %5, align 8, !tbaa !14
  %96 = load i8, ptr %94, align 1, !tbaa !27
  %97 = load ptr, ptr %10, align 8, !tbaa !14
  %98 = load i32, ptr %12, align 4, !tbaa !25
  %99 = add i32 %98, 1
  store i32 %99, ptr %12, align 4, !tbaa !25
  %100 = zext i32 %98 to i64
  %101 = getelementptr inbounds nuw i8, ptr %97, i64 %100
  store i8 %96, ptr %101, align 1, !tbaa !27
  br label %115

102:                                              ; preds = %83
  %103 = load i32, ptr %11, align 4, !tbaa !25
  %104 = add i32 %103, 1
  %105 = load ptr, ptr %3, align 8, !tbaa !3
  %106 = getelementptr inbounds nuw %struct.UConverterToUnicodeArgs, ptr %105, i32 0, i32 2
  %107 = load ptr, ptr %106, align 8, !tbaa !19
  %108 = getelementptr inbounds nuw %struct.UConverter, ptr %107, i32 0, i32 14
  store i32 %104, ptr %108, align 8, !tbaa !26
  %109 = load i32, ptr %12, align 4, !tbaa !25
  %110 = trunc i32 %109 to i8
  %111 = load ptr, ptr %3, align 8, !tbaa !3
  %112 = getelementptr inbounds nuw %struct.UConverterToUnicodeArgs, ptr %111, i32 0, i32 2
  %113 = load ptr, ptr %112, align 8, !tbaa !19
  %114 = getelementptr inbounds nuw %struct.UConverter, ptr %113, i32 0, i32 12
  store i8 %110, ptr %114, align 8, !tbaa !20
  br label %188

115:                                              ; preds = %87
  br label %79, !llvm.loop !38

116:                                              ; preds = %79
  %117 = load i32, ptr %11, align 4, !tbaa !25
  %118 = icmp ule i32 %117, 1114111
  br i1 %118, label %119, label %175

119:                                              ; preds = %116
  %120 = load i32, ptr %11, align 4, !tbaa !25
  %121 = and i32 %120, -2048
  %122 = icmp eq i32 %121, 55296
  br i1 %122, label %175, label %123

123:                                              ; preds = %119
  %124 = load i32, ptr %11, align 4, !tbaa !25
  %125 = icmp ule i32 %124, 65535
  br i1 %125, label %126, label %134

126:                                              ; preds = %123
  %127 = load i32, ptr %11, align 4, !tbaa !25
  %128 = trunc i32 %127 to i16
  %129 = load ptr, ptr %6, align 8, !tbaa !16
  %130 = getelementptr inbounds nuw i16, ptr %129, i32 1
  store ptr %130, ptr %6, align 8, !tbaa !16
  store i16 %128, ptr %129, align 2, !tbaa !30
  %131 = load i32, ptr %13, align 4, !tbaa !25
  %132 = load ptr, ptr %7, align 8, !tbaa !37
  %133 = getelementptr inbounds nuw i32, ptr %132, i32 1
  store ptr %133, ptr %7, align 8, !tbaa !37
  store i32 %131, ptr %132, align 4, !tbaa !25
  br label %174

134:                                              ; preds = %123
  %135 = load i32, ptr %11, align 4, !tbaa !25
  %136 = lshr i32 %135, 10
  %137 = add i32 %136, 55232
  %138 = trunc i32 %137 to i16
  %139 = load ptr, ptr %6, align 8, !tbaa !16
  %140 = getelementptr inbounds nuw i16, ptr %139, i32 1
  store ptr %140, ptr %6, align 8, !tbaa !16
  store i16 %138, ptr %139, align 2, !tbaa !30
  %141 = load i32, ptr %13, align 4, !tbaa !25
  %142 = load ptr, ptr %7, align 8, !tbaa !37
  %143 = getelementptr inbounds nuw i32, ptr %142, i32 1
  store ptr %143, ptr %7, align 8, !tbaa !37
  store i32 %141, ptr %142, align 4, !tbaa !25
  %144 = load i32, ptr %11, align 4, !tbaa !25
  %145 = and i32 %144, 1023
  %146 = or i32 %145, 56320
  %147 = trunc i32 %146 to i16
  %148 = zext i16 %147 to i32
  store i32 %148, ptr %11, align 4, !tbaa !25
  %149 = load ptr, ptr %6, align 8, !tbaa !16
  %150 = load ptr, ptr %9, align 8, !tbaa !16
  %151 = icmp ult ptr %149, %150
  br i1 %151, label %152, label %160

152:                                              ; preds = %134
  %153 = load i32, ptr %11, align 4, !tbaa !25
  %154 = trunc i32 %153 to i16
  %155 = load ptr, ptr %6, align 8, !tbaa !16
  %156 = getelementptr inbounds nuw i16, ptr %155, i32 1
  store ptr %156, ptr %6, align 8, !tbaa !16
  store i16 %154, ptr %155, align 2, !tbaa !30
  %157 = load i32, ptr %13, align 4, !tbaa !25
  %158 = load ptr, ptr %7, align 8, !tbaa !37
  %159 = getelementptr inbounds nuw i32, ptr %158, i32 1
  store ptr %159, ptr %7, align 8, !tbaa !37
  store i32 %157, ptr %158, align 4, !tbaa !25
  br label %173

160:                                              ; preds = %134
  %161 = load i32, ptr %11, align 4, !tbaa !25
  %162 = trunc i32 %161 to i16
  %163 = load ptr, ptr %3, align 8, !tbaa !3
  %164 = getelementptr inbounds nuw %struct.UConverterToUnicodeArgs, ptr %163, i32 0, i32 2
  %165 = load ptr, ptr %164, align 8, !tbaa !19
  %166 = getelementptr inbounds nuw %struct.UConverter, ptr %165, i32 0, i32 30
  %167 = getelementptr inbounds [32 x i16], ptr %166, i64 0, i64 0
  store i16 %162, ptr %167, align 8, !tbaa !30
  %168 = load ptr, ptr %3, align 8, !tbaa !3
  %169 = getelementptr inbounds nuw %struct.UConverterToUnicodeArgs, ptr %168, i32 0, i32 2
  %170 = load ptr, ptr %169, align 8, !tbaa !19
  %171 = getelementptr inbounds nuw %struct.UConverter, ptr %170, i32 0, i32 23
  store i8 1, ptr %171, align 1, !tbaa !32
  %172 = load ptr, ptr %4, align 8, !tbaa !3
  store i32 15, ptr %172, align 4, !tbaa !33
  br label %187

173:                                              ; preds = %152
  br label %174

174:                                              ; preds = %173, %126
  br label %183

175:                                              ; preds = %119, %116
  %176 = load i32, ptr %12, align 4, !tbaa !25
  %177 = trunc i32 %176 to i8
  %178 = load ptr, ptr %3, align 8, !tbaa !3
  %179 = getelementptr inbounds nuw %struct.UConverterToUnicodeArgs, ptr %178, i32 0, i32 2
  %180 = load ptr, ptr %179, align 8, !tbaa !19
  %181 = getelementptr inbounds nuw %struct.UConverter, ptr %180, i32 0, i32 12
  store i8 %177, ptr %181, align 8, !tbaa !20
  %182 = load ptr, ptr %4, align 8, !tbaa !3
  store i32 12, ptr %182, align 4, !tbaa !33
  br label %187

183:                                              ; preds = %174
  %184 = load i32, ptr %12, align 4, !tbaa !25
  %185 = load i32, ptr %13, align 4, !tbaa !25
  %186 = add i32 %185, %184
  store i32 %186, ptr %13, align 4, !tbaa !25
  br label %67, !llvm.loop !39

187:                                              ; preds = %175, %160, %75
  br label %188

188:                                              ; preds = %187, %102
  %189 = load ptr, ptr %5, align 8, !tbaa !14
  %190 = load ptr, ptr %8, align 8, !tbaa !14
  %191 = icmp ult ptr %189, %190
  br i1 %191, label %192, label %203

192:                                              ; preds = %188
  %193 = load ptr, ptr %6, align 8, !tbaa !16
  %194 = load ptr, ptr %9, align 8, !tbaa !16
  %195 = icmp uge ptr %193, %194
  br i1 %195, label %196, label %203

196:                                              ; preds = %192
  %197 = load ptr, ptr %4, align 8, !tbaa !3
  %198 = load i32, ptr %197, align 4, !tbaa !33
  %199 = call noundef signext i8 @_ZL9U_SUCCESS10UErrorCode(i32 noundef %198)
  %200 = icmp ne i8 %199, 0
  br i1 %200, label %201, label %203

201:                                              ; preds = %196
  %202 = load ptr, ptr %4, align 8, !tbaa !3
  store i32 15, ptr %202, align 4, !tbaa !33
  br label %203

203:                                              ; preds = %201, %196, %192, %188
  %204 = load ptr, ptr %6, align 8, !tbaa !16
  %205 = load ptr, ptr %3, align 8, !tbaa !3
  %206 = getelementptr inbounds nuw %struct.UConverterToUnicodeArgs, ptr %205, i32 0, i32 5
  store ptr %204, ptr %206, align 8, !tbaa !15
  %207 = load ptr, ptr %5, align 8, !tbaa !14
  %208 = load ptr, ptr %3, align 8, !tbaa !3
  %209 = getelementptr inbounds nuw %struct.UConverterToUnicodeArgs, ptr %208, i32 0, i32 3
  store ptr %207, ptr %209, align 8, !tbaa !7
  %210 = load ptr, ptr %7, align 8, !tbaa !37
  %211 = load ptr, ptr %3, align 8, !tbaa !3
  %212 = getelementptr inbounds nuw %struct.UConverterToUnicodeArgs, ptr %211, i32 0, i32 7
  store ptr %210, ptr %212, align 8, !tbaa !36
  call void @llvm.lifetime.end.p0(i64 4, ptr %13) #6
  call void @llvm.lifetime.end.p0(i64 4, ptr %12) #6
  call void @llvm.lifetime.end.p0(i64 4, ptr %11) #6
  call void @llvm.lifetime.end.p0(i64 8, ptr %10) #6
  call void @llvm.lifetime.end.p0(i64 8, ptr %9) #6
  call void @llvm.lifetime.end.p0(i64 8, ptr %8) #6
  call void @llvm.lifetime.end.p0(i64 8, ptr %7) #6
  call void @llvm.lifetime.end.p0(i64 8, ptr %6) #6
  call void @llvm.lifetime.end.p0(i64 8, ptr %5) #6
  ret void
}