; Function Attrs: mustprogress nofree norecurse nosync nounwind memory(readwrite, inaccessiblemem: none) uwtable
define internal void @_ZL44T_UConverter_toUnicode_UTF32_BE_OFFSET_LOGICP23UConverterToUnicodeArgsP10UErrorCode(ptr noundef captures(none) %0, ptr noundef captures(none) %1) #0 {
  %3 = getelementptr inbounds nuw i8, ptr %0, i64 16
  %4 = load ptr, ptr %3, align 8, !tbaa !3
  %5 = getelementptr inbounds nuw i8, ptr %0, i64 32
  %6 = load ptr, ptr %5, align 8, !tbaa !13
  %7 = getelementptr inbounds nuw i8, ptr %0, i64 48
  %8 = load ptr, ptr %7, align 8, !tbaa !32
  %9 = getelementptr inbounds nuw i8, ptr %0, i64 24
  %10 = load ptr, ptr %9, align 8, !tbaa !14
  %11 = getelementptr inbounds nuw i8, ptr %0, i64 40
  %12 = load ptr, ptr %11, align 8, !tbaa !15
  %13 = getelementptr inbounds nuw i8, ptr %0, i64 8
  %14 = load ptr, ptr %13, align 8, !tbaa !16
  %15 = getelementptr inbounds nuw i8, ptr %14, i64 65
  %16 = getelementptr inbounds nuw i8, ptr %14, i64 64
  %17 = load i8, ptr %16, align 8, !tbaa !17
  %18 = icmp sgt i8 %17, 0
  %19 = icmp ult ptr %6, %12
  %or.cond = select i1 %18, i1 %19, i1 false
  br i1 %or.cond, label %20, label %25

20:                                               ; preds = %2
  %21 = zext nneg i8 %17 to i32
  store i8 0, ptr %16, align 8, !tbaa !17
  %22 = getelementptr inbounds nuw i8, ptr %14, i64 72
  %23 = load i32, ptr %22, align 8, !tbaa !22
  %24 = add i32 %23, -1
  store i32 0, ptr %22, align 8, !tbaa !22
  br label %29

25:                                               ; preds = %2, %76
  %.178 = phi ptr [ %.380, %76 ], [ %8, %2 ]
  %.174 = phi ptr [ %.376, %76 ], [ %6, %2 ]
  %.172 = phi ptr [ %.2.lcssa, %76 ], [ %4, %2 ]
  %.1 = phi i32 [ %77, %76 ], [ 0, %2 ]
  %26 = icmp ult ptr %.172, %10
  %27 = icmp ult ptr %.174, %12
  %28 = select i1 %26, i1 %27, i1 false
  br i1 %28, label %29, label %78

29:                                               ; preds = %25, %20
  %.077 = phi ptr [ %8, %20 ], [ %.178, %25 ]
  %.073 = phi ptr [ %6, %20 ], [ %.174, %25 ]
  %.071 = phi ptr [ %4, %20 ], [ %.172, %25 ]
  %.069 = phi i32 [ %24, %20 ], [ 0, %25 ]
  %.067 = phi i32 [ %21, %20 ], [ 0, %25 ]
  %.0 = phi i32 [ 0, %20 ], [ %.1, %25 ]
  %30 = icmp samesign ult i32 %.067, 4
  br i1 %30, label %.lr.ph.preheader, label %._crit_edge

.lr.ph.preheader:                                 ; preds = %29
  %31 = zext nneg i32 %.067 to i64
  br label %.lr.ph

.lr.ph:                                           ; preds = %.lr.ph.preheader, %33
  %indvars.iv = phi i64 [ %31, %.lr.ph.preheader ], [ %indvars.iv.next, %33 ]
  %.17095 = phi i32 [ %.069, %.lr.ph.preheader ], [ %37, %33 ]
  %.294 = phi ptr [ %.071, %.lr.ph.preheader ], [ %38, %33 ]
  %32 = icmp ult ptr %.294, %10
  br i1 %32, label %33, label %40

33:                                               ; preds = %.lr.ph
  %34 = shl i32 %.17095, 8
  %35 = load i8, ptr %.294, align 1, !tbaa !23
  %36 = zext i8 %35 to i32
  %37 = or disjoint i32 %34, %36
  %38 = getelementptr inbounds nuw i8, ptr %.294, i64 1
  %indvars.iv.next = add nuw nsw i64 %indvars.iv, 1
  %39 = getelementptr inbounds nuw i8, ptr %15, i64 %indvars.iv
  store i8 %35, ptr %39, align 1, !tbaa !23
  %exitcond.not = icmp eq i64 %indvars.iv.next, 4
  br i1 %exitcond.not, label %._crit_edge, label %.lr.ph, !llvm.loop !33

40:                                               ; preds = %.lr.ph
  %41 = add i32 %.17095, 1
  %42 = load ptr, ptr %13, align 8, !tbaa !16
  %43 = getelementptr inbounds nuw i8, ptr %42, i64 72
  store i32 %41, ptr %43, align 8, !tbaa !22
  %44 = trunc i64 %indvars.iv to i8
  %45 = getelementptr inbounds nuw i8, ptr %42, i64 64
  store i8 %44, ptr %45, align 8, !tbaa !17
  br label %78

._crit_edge:                                      ; preds = %33, %29
  %.2.lcssa = phi ptr [ %.071, %29 ], [ %38, %33 ]
  %.170.lcssa = phi i32 [ %.069, %29 ], [ %37, %33 ]
  %.168.lcssa = phi i32 [ %.067, %29 ], [ 4, %33 ]
  %46 = icmp ugt i32 %.170.lcssa, 1114111
  %47 = and i32 %.170.lcssa, 2095104
  %48 = icmp eq i32 %47, 55296
  %or.cond89 = or i1 %46, %48
  br i1 %or.cond89, label %72, label %49

49:                                               ; preds = %._crit_edge
  %50 = icmp samesign ult i32 %.170.lcssa, 65536
  br i1 %50, label %51, label %55

51:                                               ; preds = %49
  %52 = trunc nuw i32 %.170.lcssa to i16
  %53 = getelementptr inbounds nuw i8, ptr %.073, i64 2
  store i16 %52, ptr %.073, align 2, !tbaa !26
  %54 = getelementptr inbounds nuw i8, ptr %.077, i64 4
  store i32 %.0, ptr %.077, align 4, !tbaa !34
  br label %76

55:                                               ; preds = %49
  %56 = lshr i32 %.170.lcssa, 10
  %57 = trunc nuw i32 %56 to i16
  %58 = add nuw nsw i16 %57, -10304
  %59 = getelementptr inbounds nuw i8, ptr %.073, i64 2
  store i16 %58, ptr %.073, align 2, !tbaa !26
  %60 = getelementptr inbounds nuw i8, ptr %.077, i64 4
  store i32 %.0, ptr %.077, align 4, !tbaa !34
  %61 = trunc i32 %.170.lcssa to i16
  %62 = and i16 %61, 1023
  %63 = or disjoint i16 %62, -9216
  %64 = icmp ult ptr %59, %12
  br i1 %64, label %65, label %68

65:                                               ; preds = %55
  %66 = getelementptr inbounds nuw i8, ptr %.073, i64 4
  store i16 %63, ptr %59, align 2, !tbaa !26
  %67 = getelementptr inbounds nuw i8, ptr %.077, i64 8
  store i32 %.0, ptr %60, align 4, !tbaa !34
  br label %76

68:                                               ; preds = %55
  %69 = load ptr, ptr %13, align 8, !tbaa !16
  %70 = getelementptr inbounds nuw i8, ptr %69, i64 144
  store i16 %63, ptr %70, align 8, !tbaa !26
  %71 = getelementptr inbounds nuw i8, ptr %69, i64 93
  store i8 1, ptr %71, align 1, !tbaa !29
  store i32 15, ptr %1, align 4, !tbaa !30
  br label %78

72:                                               ; preds = %._crit_edge
  %73 = trunc nuw nsw i32 %.168.lcssa to i8
  %74 = load ptr, ptr %13, align 8, !tbaa !16
  %75 = getelementptr inbounds nuw i8, ptr %74, i64 64
  store i8 %73, ptr %75, align 8, !tbaa !17
  store i32 12, ptr %1, align 4, !tbaa !30
  br label %78

76:                                               ; preds = %51, %65
  %.380 = phi ptr [ %54, %51 ], [ %67, %65 ]
  %.376 = phi ptr [ %53, %51 ], [ %66, %65 ]
  %77 = add i32 %.168.lcssa, %.0
  br label %25, !llvm.loop !35

78:                                               ; preds = %25, %68, %72, %40
  %.279 = phi ptr [ %.077, %40 ], [ %.077, %72 ], [ %.178, %25 ], [ %60, %68 ]
  %.275 = phi ptr [ %.073, %40 ], [ %.073, %72 ], [ %.174, %25 ], [ %59, %68 ]
  %.3 = phi ptr [ %.294, %40 ], [ %.2.lcssa, %72 ], [ %.172, %25 ], [ %.2.lcssa, %68 ]
  %79 = icmp uge ptr %.3, %10
  %.not = icmp ult ptr %.275, %12
  %or.cond90 = select i1 %79, i1 true, i1 %.not
  br i1 %or.cond90, label %84, label %80

80:                                               ; preds = %78
  %81 = load i32, ptr %1, align 4, !tbaa !30
  %82 = icmp sgt i32 %81, 0
  br i1 %82, label %84, label %83

83:                                               ; preds = %80
  store i32 15, ptr %1, align 4, !tbaa !30
  br label %84

84:                                               ; preds = %83, %80, %78
  store ptr %.275, ptr %5, align 8, !tbaa !13
  store ptr %.3, ptr %3, align 8, !tbaa !3
  store ptr %.279, ptr %7, align 8, !tbaa !32
  ret void
}